; Function Attrs: mustprogress nofree norecurse nosync nounwind memory(argmem: readwrite) uwtable
define void @_ZN9CryptData7Crypt15EPhm(ptr noundef nonnull align 8 captures(none) dereferenceable(2516) %0, ptr noundef captures(none) %1, i64 noundef %2) local_unnamed_addr #0 align 2 {
  %.not4 = icmp eq i64 %2, 0
  br i1 %.not4, label %._crit_edge, label %.lr.ph

.lr.ph:                                           ; preds = %3
  %4 = getelementptr inbounds nuw i8, ptr %0, i64 2508
  %5 = getelementptr inbounds nuw i8, ptr %0, i64 1208
  %6 = getelementptr inbounds nuw i8, ptr %0, i64 2510
  %7 = getelementptr inbounds nuw i8, ptr %0, i64 2512
  %8 = getelementptr inbounds nuw i8, ptr %0, i64 2514
  br label %9

9:                                                ; preds = %.lr.ph, %9
  %.06 = phi i64 [ %2, %.lr.ph ], [ %10, %9 ]
  %.035 = phi ptr [ %1, %.lr.ph ], [ %35, %9 ]
  %10 = add i64 %.06, -1
  %11 = load i16, ptr %4, align 4
  %12 = add i16 %11, 4660
  %13 = lshr i16 %12, 1
  %14 = and i16 %13, 255
  %15 = zext nneg i16 %14 to i64
  %16 = getelementptr inbounds nuw [256 x i32], ptr %5, i64 0, i64 %15
  %17 = load i32, ptr %16, align 4
  %18 = load i16, ptr %6, align 2
  %19 = trunc i32 %17 to i16
  %20 = xor i16 %18, %19
  store i16 %20, ptr %6, align 2
  %21 = lshr i32 %17, 16
  %22 = load i16, ptr %7, align 8
  %23 = trunc nuw i32 %21 to i16
  %24 = sub i16 %22, %23
  store i16 %24, ptr %7, align 8
  %25 = xor i16 %24, %12
  %26 = load i16, ptr %8, align 2
  %27 = tail call i16 @llvm.fshl.i16(i16 %26, i16 %26, i16 15)
  %28 = xor i16 %27, %20
  %29 = tail call i16 @llvm.fshl.i16(i16 %28, i16 %28, i16 15)
  store i16 %29, ptr %8, align 2
  %30 = xor i16 %29, %25
  store i16 %30, ptr %4, align 4
  %31 = lshr i16 %30, 8
  %32 = load i8, ptr %.035, align 1
  %33 = trunc nuw i16 %31 to i8
  %34 = xor i8 %32, %33
  store i8 %34, ptr %.035, align 1
  %35 = getelementptr inbounds nuw i8, ptr %.035, i64 1
  %.not = icmp eq i64 %10, 0
  br i1 %.not, label %._crit_edge, label %9, !llvm.loop !8

._crit_edge:                                      ; preds = %9, %3
  ret void
}